target datalayout = "e-m:e-p270:32:32-p271:32:32-p272:64:64-i64:64-i128:128-f80:128-n8:16:32:64-S128"
target triple = "x86_64-pc-linux-gnu"

%struct.H5FD_onion_fapl_info_t = type { i8, i64, i32, i32, i64, i8, i8, [256 x i8] }
%struct.H5FD_onion_t = type { %struct.H5FD_t, %struct.H5FD_onion_fapl_info_t, i8, i8, ptr, ptr, ptr, ptr, %struct.H5FD_onion_header_t, %struct.H5FD_onion_history_t, %struct.H5FD_onion_revision_record_t, ptr, i64, i64, i64, i64 }
%struct.H5FD_t = type { i64, ptr, i64, i32, i64, i64, i64, i64, i64, i8 }
%struct.H5FD_onion_header_t = type { i8, i32, i32, i64, i64, i64, i32 }
%struct.H5FD_onion_history_t = type { i8, i64, ptr, i32 }
%struct.H5FD_onion_revision_record_t = type { i8, i64, i64, [16 x i8], i64, %struct.H5FD_onion_archival_index_t, i32, ptr, i32 }
%struct.H5FD_onion_archival_index_t = type { i8, i32, i64, ptr }

; Function Attrs: nounwind uwtable
define internal i64 @H5FD__onion_sb_size(ptr noundef %0) #0 {
  %2 = alloca ptr, align 8
  %3 = alloca ptr, align 8
  %4 = alloca i64, align 8
  store ptr %0, ptr %2, align 8
  %5 = load ptr, ptr %2, align 8
  store ptr %5, ptr %3, align 8
  store i64 0, ptr %4, align 8
  %6 = load ptr, ptr %3, align 8
  %7 = getelementptr inbounds %struct.H5FD_onion_t, ptr %6, i32 0, i32 4
  %8 = load ptr, ptr %7, align 8
  %9 = icmp ne ptr %8, null
  br i1 %9, label %10, label %15

10:                                               ; preds = %1
  %11 = load ptr, ptr %3, align 8
  %12 = getelementptr inbounds %struct.H5FD_onion_t, ptr %11, i32 0, i32 4
  %13 = load ptr, ptr %12, align 8
  %14 = call i64 @H5FD_sb_size(ptr noundef %13)
  store i64 %14, ptr %4, align 8
  br label %15

15:                                               ; preds = %10, %1
  %16 = load i64, ptr %4, align 8
  ret i64 %16
}