; Function Attrs: nounwind uwtable
define internal i64 @H5FD__onion_sb_size(ptr noundef readonly captures(none) %0) #0 {
  %2 = getelementptr inbounds nuw i8, ptr %0, i64 384
  %3 = load ptr, ptr %2, align 8
  %.not = icmp eq ptr %3, null
  br i1 %.not, label %6, label %4

4:                                                ; preds = %1
  %5 = tail call i64 @H5FD_sb_size(ptr noundef nonnull %3) #18
  br label %6

6:                                                ; preds = %4, %1
  %.0 = phi i64 [ %5, %4 ], [ 0, %1 ]
  ret i64 %.0
}